Disassembly of section .text:

00010060 <_start>:
   10060:	00000517          	auipc	x10,0x0

00010064 <pcrel_TWO>:
   10064:	00000597          	auipc	x11,0x0

00010068 <pcrel_ONE>:
   10068:	00000617          	auipc	x12,0x0
   1006c:	00000013          	nop
   10070:	00000013          	nop
   10074:	00000013          	nop
   10078:	00000013          	nop
   1007c:	00000013          	nop
   10080:	00000013          	nop
   10084:	00000013          	nop
   10088:	2a852083          	lw	x1,680(x10) # 10308 <NEGTWO>
   1008c:	2a05a103          	lw	x2,672(x11) # 10304 <TWO>
   10090:	29862203          	lw	x4,664(x12) # 10300 <ONE>
   10094:	00000013          	nop
   10098:	00000013          	nop
   1009c:	00000013          	nop
   100a0:	00000013          	nop
   100a4:	00000013          	nop
   100a8:	00000013          	nop
   100ac:	00000013          	nop
   100b0:	02000063          	beqz	x0,100d0 <LD_ST_TEST>
   100b4:	00000013          	nop
   100b8:	00000013          	nop
   100bc:	00000013          	nop
   100c0:	00000013          	nop
   100c4:	00000013          	nop
   100c8:	00000013          	nop
   100cc:	00000013          	nop

000100d0 <LD_ST_TEST>:
   100d0:	00000097          	auipc	x1,0x0

000100d4 <pcrel_HALF>:
   100d4:	00000117          	auipc	x2,0x0
   100d8:	00000013          	nop
   100dc:	00000013          	nop
   100e0:	00000013          	nop
   100e4:	00000013          	nop
   100e8:	00000013          	nop
   100ec:	00000013          	nop
   100f0:	24808093          	addi	x1,x1,584 # 10318 <BYTES>
   100f4:	24810113          	addi	x2,x2,584 # 1031c <HALF>
   100f8:	00000013          	nop
   100fc:	00000013          	nop
   10100:	00000013          	nop
   10104:	00000013          	nop
   10108:	00000013          	nop
   1010c:	00000013          	nop
   10110:	00008183          	lb	x3,0(x1)
   10114:	00208203          	lb	x4,2(x1)
   10118:	00308283          	lb	x5,3(x1)
   1011c:	00011303          	lh	x6,0(x2)
   10120:	00211383          	lh	x7,2(x2)
   10124:	00000013          	nop
   10128:	00000013          	nop
   1012c:	00000013          	nop
   10130:	00000013          	nop
   10134:	00000013          	nop
   10138:	00000013          	nop
   1013c:	00418433          	add	x8,x3,x4
   10140:	0c604c63          	bgtz	x6,10218 <BADBAD>
   10144:	00000013          	nop
   10148:	00000013          	nop
   1014c:	00000013          	nop
   10150:	00000013          	nop
   10154:	00000013          	nop
   10158:	00000013          	nop
   1015c:	0a829e63          	bne	x5,x8,10218 <BADBAD>
   10160:	00000013          	nop
   10164:	00000013          	nop
   10168:	00000013          	nop
   1016c:	00000013          	nop
   10170:	00000013          	nop

00010174 <LOOP>:
   10174:	00000697          	auipc	x13,0x0

00010178 <pcrel_TEMP1_2>:
   10178:	00000717          	auipc	x14,0x0
   1017c:	002081b3          	add	x3,x1,x2
   10180:	0040f2b3          	and	x5,x1,x4
   10184:	fff0c313          	not	x6,x1
   10188:	00000013          	nop
   1018c:	00000013          	nop
   10190:	00000013          	nop
   10194:	19868493          	addi	x9,x13,408 # 1030c <TEMP1>
   10198:	00000013          	nop
   1019c:	00000013          	nop
   101a0:	00000013          	nop
   101a4:	00000013          	nop
   101a8:	00000013          	nop
   101ac:	00000013          	nop
   101b0:	0064a023          	sw	x6,0(x9)
   101b4:	19472383          	lw	x7,404(x14) # 1030c <TEMP1>
   101b8:	004080b3          	add	x1,x1,x4
   101bc:	00000013          	nop
   101c0:	00000013          	nop
   101c4:	00000013          	nop
   101c8:	00000013          	nop
   101cc:	00000013          	nop
   101d0:	00000013          	nop
   101d4:	00000013          	nop
   101d8:	08104263          	bgtz	x1,1025c <DONEa>
   101dc:	00000013          	nop
   101e0:	00000013          	nop
   101e4:	00000013          	nop
   101e8:	00000013          	nop
   101ec:	00000013          	nop
   101f0:	00000013          	nop
   101f4:	00000013          	nop
   101f8:	f6000ee3          	beqz	x0,10174 <LOOP>
   101fc:	00000013          	nop
   10200:	00000013          	nop
   10204:	00000013          	nop
   10208:	00000013          	nop
   1020c:	00000013          	nop
   10210:	00000013          	nop
   10214:	00000013          	nop

00010218 <BADBAD>:
   10218:	00000797          	auipc	x15,0x0
   1021c:	00000013          	nop
   10220:	00000013          	nop
   10224:	00000013          	nop
   10228:	00000013          	nop
   1022c:	00000013          	nop
   10230:	00000013          	nop
   10234:	00000013          	nop
   10238:	0fc7a083          	lw	x1,252(x15) # 10314 <BADD>

0001023c <HALT>:
   1023c:	00000063          	beqz	x0,1023c <HALT>
   10240:	00000013          	nop
   10244:	00000013          	nop
   10248:	00000013          	nop
   1024c:	00000013          	nop
   10250:	00000013          	nop
   10254:	00000013          	nop
   10258:	00000013          	nop

0001025c <DONEa>:
   1025c:	00000817          	auipc	x16,0x0
   10260:	00000013          	nop
   10264:	00000013          	nop
   10268:	00000013          	nop
   1026c:	00000013          	nop
   10270:	00000013          	nop
   10274:	00000013          	nop
   10278:	00000013          	nop
   1027c:	0b482083          	lw	x1,180(x16) # 10310 <GOOD>

00010280 <DONEb>:
   10280:	00000063          	beqz	x0,10280 <DONEb>
   10284:	00000013          	nop
   10288:	00000013          	nop
   1028c:	00000013          	nop
   10290:	00000013          	nop
   10294:	00000013          	nop
   10298:	00000013          	nop
   1029c:	00000013          	nop
	...
